; Function Attrs: nounwind uwtable
define float @Abc_NtkComputeFanoutLoad(ptr noundef readonly captures(none) %0, ptr noundef readonly captures(none) %1) local_unnamed_addr #0 {
  %3 = getelementptr inbounds nuw i8, ptr %0, i64 48
  %4 = load ptr, ptr %3, align 8, !tbaa !63
  %5 = getelementptr i8, ptr %1, i64 4
  %.val = load i32, ptr %5, align 4, !tbaa !42
  %6 = tail call float @Abc_SclFindWireLoad(ptr noundef %4, i32 noundef %.val) #24
  %.val10 = load i32, ptr %5, align 4, !tbaa !42
  %7 = icmp sgt i32 %.val10, 0
  br i1 %7, label %.lr.ph, label %.critedge

.lr.ph:                                           ; preds = %2
  %8 = getelementptr i8, ptr %1, i64 8
  %.val11 = load ptr, ptr %8, align 8, !tbaa !43
  %wide.trip.count = zext nneg i32 %.val10 to i64
  br label %9

9:                                                ; preds = %.lr.ph, %9
  %indvars.iv = phi i64 [ 0, %.lr.ph ], [ %indvars.iv.next, %9 ]
  %.0914 = phi float [ %6, %.lr.ph ], [ %19, %9 ]
  %10 = getelementptr inbounds nuw ptr, ptr %.val11, i64 %indvars.iv
  %11 = load ptr, ptr %10, align 8, !tbaa !44
  %.val12 = load ptr, ptr %11, align 8, !tbaa !48
  %12 = getelementptr i8, ptr %11, i64 16
  %.val13 = load i32, ptr %12, align 8, !tbaa !51
  %13 = getelementptr i8, ptr %.val12, i64 360
  %.val12.val = load ptr, ptr %13, align 8, !tbaa !74
  %14 = getelementptr i8, ptr %.val12.val, i64 56
  %.val12.val.val = load ptr, ptr %14, align 8, !tbaa !69
  %15 = getelementptr i8, ptr %.val12.val.val, i64 8
  %.val12.val.val.val = load ptr, ptr %15, align 8, !tbaa !68
  %16 = sext i32 %.val13 to i64
  %17 = getelementptr inbounds float, ptr %.val12.val.val.val, i64 %16
  %18 = load float, ptr %17, align 4, !tbaa !73
  %19 = fadd float %.0914, %18
  %indvars.iv.next = add nuw nsw i64 %indvars.iv, 1
  %exitcond.not = icmp eq i64 %indvars.iv.next, %wide.trip.count
  br i1 %exitcond.not, label %.critedge, label %9, !llvm.loop !95

.critedge:                                        ; preds = %9, %2
  %.09.lcssa = phi float [ %6, %2 ], [ %19, %9 ]
  ret float %.09.lcssa
}